target datalayout = "e-m:e-p270:32:32-p271:32:32-p272:64:64-i64:64-i128:128-f80:128-n8:16:32:64-S128"
target triple = "x86_64-pc-linux-gnu"

%"class.duckdb_re2::Regexp" = type { i8, i8, i16, i16, i16, %union.anon, ptr, %union.anon.0 }
%union.anon = type { ptr }
%union.anon.0 = type { %struct.anon.1 }
%struct.anon.1 = type { i32, ptr }

@_ZN10duckdb_re26RegexpC1ENS_8RegexpOpENS0_10ParseFlagsE = hidden unnamed_addr alias void (ptr, i32, i32), ptr @_ZN10duckdb_re26RegexpC2ENS_8RegexpOpENS0_10ParseFlagsE

; Function Attrs: mustprogress nounwind uwtable
define linkonce_odr hidden noundef ptr @_ZN10duckdb_re26Regexp3subEv(ptr noundef nonnull align 8 dereferenceable(40) %0) #0 comdat align 2 {
  %2 = alloca ptr, align 8
  %3 = alloca ptr, align 8
  store ptr %0, ptr %3, align 8, !tbaa !3
  %4 = load ptr, ptr %3, align 8
  %5 = getelementptr inbounds nuw %"class.duckdb_re2::Regexp", ptr %4, i32 0, i32 4
  %6 = load i16, ptr %5, align 2, !tbaa !18
  %7 = zext i16 %6 to i32
  %8 = icmp sle i32 %7, 1
  br i1 %8, label %9, label %11

9:                                                ; preds = %1
  %10 = getelementptr inbounds nuw %"class.duckdb_re2::Regexp", ptr %4, i32 0, i32 5
  store ptr %10, ptr %2, align 8
  br label %14

11:                                               ; preds = %1
  %12 = getelementptr inbounds nuw %"class.duckdb_re2::Regexp", ptr %4, i32 0, i32 5
  %13 = load ptr, ptr %12, align 8, !tbaa !20
  store ptr %13, ptr %2, align 8
  br label %14

14:                                               ; preds = %11, %9
  %15 = load ptr, ptr %2, align 8
  ret ptr %15
}

; Function Attrs: mustprogress uwtable
define linkonce_odr hidden void @_ZN10duckdb_re26Regexp8AllocSubEi(ptr noundef nonnull align 8 dereferenceable(40) %0, i32 noundef %1) #4 comdat align 2 {
  %3 = alloca ptr, align 8
  %4 = alloca i32, align 4
  store ptr %0, ptr %3, align 8, !tbaa !3
  store i32 %1, ptr %4, align 4, !tbaa !29
  %5 = load ptr, ptr %3, align 8
  %6 = load i32, ptr %4, align 4, !tbaa !29
  %7 = icmp sgt i32 %6, 1
  br i1 %7, label %8, label %17

8:                                                ; preds = %2
  %9 = load i32, ptr %4, align 4, !tbaa !29
  %10 = sext i32 %9 to i64
  %11 = call { i64, i1 } @llvm.umul.with.overflow.i64(i64 %10, i64 8)
  %12 = extractvalue { i64, i1 } %11, 1
  %13 = extractvalue { i64, i1 } %11, 0
  %14 = select i1 %12, i64 -1, i64 %13
  %15 = call noalias noundef nonnull ptr @_Znam(i64 noundef %14) #22
  %16 = getelementptr inbounds nuw %"class.duckdb_re2::Regexp", ptr %5, i32 0, i32 5
  store ptr %15, ptr %16, align 8, !tbaa !20
  br label %17

17:                                               ; preds = %8, %2
  %18 = load i32, ptr %4, align 4, !tbaa !29
  %19 = trunc i32 %18 to i16
  %20 = getelementptr inbounds nuw %"class.duckdb_re2::Regexp", ptr %5, i32 0, i32 4
  store i16 %19, ptr %20, align 2, !tbaa !18
  ret void
}

; Function Attrs: mustprogress uwtable
define hidden noundef ptr @_ZN10duckdb_re26Regexp7CaptureEPS0_NS0_10ParseFlagsEi(ptr noundef %0, i32 noundef %1, i32 noundef %2) #4 align 2 personality ptr @__gxx_personality_v0 {
  %4 = alloca ptr, align 8
  %5 = alloca i32, align 4
  %6 = alloca i32, align 4
  %7 = alloca ptr, align 8
  %8 = alloca ptr, align 8
  %9 = alloca i32, align 4
  store ptr %0, ptr %4, align 8, !tbaa !3
  store i32 %1, ptr %5, align 4, !tbaa !10
  store i32 %2, ptr %6, align 4, !tbaa !29
  call void @llvm.lifetime.start.p0(i64 8, ptr %7) #18
  %10 = call noalias noundef nonnull ptr @_Znwm(i64 noundef 40) #22
  %11 = load i32, ptr %5, align 4, !tbaa !10
  invoke void @_ZN10duckdb_re26RegexpC1ENS_8RegexpOpENS0_10ParseFlagsE(ptr noundef nonnull align 8 dereferenceable(40) %10, i32 noundef 11, i32 noundef %11)
          to label %12 unwind label %23

12:                                               ; preds = %3
  store ptr %10, ptr %7, align 8, !tbaa !3
  %13 = load ptr, ptr %7, align 8, !tbaa !3
  call void @_ZN10duckdb_re26Regexp8AllocSubEi(ptr noundef nonnull align 8 dereferenceable(40) %13, i32 noundef 1)
  %14 = load ptr, ptr %4, align 8, !tbaa !3
  %15 = load ptr, ptr %7, align 8, !tbaa !3
  %16 = call noundef ptr @_ZN10duckdb_re26Regexp3subEv(ptr noundef nonnull align 8 dereferenceable(40) %15)
  %17 = getelementptr inbounds ptr, ptr %16, i64 0
  store ptr %14, ptr %17, align 8, !tbaa !3
  %18 = load i32, ptr %6, align 4, !tbaa !29
  %19 = load ptr, ptr %7, align 8, !tbaa !3
  %20 = getelementptr inbounds nuw %"class.duckdb_re2::Regexp", ptr %19, i32 0, i32 7
  %21 = getelementptr inbounds nuw %struct.anon.1, ptr %20, i32 0, i32 0
  store i32 %18, ptr %21, align 8, !tbaa !20
  %22 = load ptr, ptr %7, align 8, !tbaa !3
  call void @llvm.lifetime.end.p0(i64 8, ptr %7) #18
  ret ptr %22

23:                                               ; preds = %3
  %24 = landingpad { ptr, i32 }
          cleanup
  %25 = extractvalue { ptr, i32 } %24, 0
  store ptr %25, ptr %8, align 8
  %26 = extractvalue { ptr, i32 } %24, 1
  store i32 %26, ptr %9, align 4
  call void @_ZdlPv(ptr noundef %10) #19
  call void @llvm.lifetime.end.p0(i64 8, ptr %7) #18
  br label %27

27:                                               ; preds = %23
  %28 = load ptr, ptr %8, align 8
  %29 = load i32, ptr %9, align 4
  %30 = insertvalue { ptr, i32 } poison, ptr %28, 0
  %31 = insertvalue { ptr, i32 } %30, i32 %29, 1
  resume { ptr, i32 } %31
}