; Function Attrs: mustprogress uwtable
define hidden noalias noundef nonnull ptr @_ZN10duckdb_re26Regexp7CaptureEPS0_NS0_10ParseFlagsEi(ptr noundef %0, i32 noundef %1, i32 noundef %2) local_unnamed_addr #7 align 2 personality ptr @__gxx_personality_v0 {
  %4 = tail call noalias noundef nonnull dereferenceable(40) ptr @_Znwm(i64 noundef 40) #31
  store i8 11, ptr %4, align 8, !tbaa !3
  %5 = getelementptr inbounds nuw i8, ptr %4, i64 1
  store i8 0, ptr %5, align 1, !tbaa !10
  %6 = getelementptr inbounds nuw i8, ptr %4, i64 2
  %7 = trunc i32 %1 to i16
  store i16 %7, ptr %6, align 2, !tbaa !11
  %8 = getelementptr inbounds nuw i8, ptr %4, i64 4
  store i16 1, ptr %8, align 4, !tbaa !12
  %9 = getelementptr inbounds nuw i8, ptr %4, i64 6
  %10 = getelementptr inbounds nuw i8, ptr %4, i64 16
  tail call void @llvm.memset.p0.i64(ptr noundef nonnull align 2 dereferenceable(34) %10, i8 0, i64 24, i1 false)
  store i16 1, ptr %9, align 2, !tbaa !13
  %11 = getelementptr inbounds nuw i8, ptr %4, i64 8
  store ptr %0, ptr %11, align 8, !tbaa !41
  %12 = getelementptr inbounds nuw i8, ptr %4, i64 24
  store i32 %2, ptr %12, align 8, !tbaa !32
  ret ptr %4
}